(lp0
(dp1
S'loss'
p2
cnumpy.core.multiarray
scalar
p3
(cnumpy
dtype
p4
(S'f8'
p5
I0
I1
tp6
Rp7
(I3
S'<'
p8
NNNI-1
I-1
I0
tp9
bS'\xa9\xd5\xf8r>\xe7K?'
p10
tp11
Rp12
sa(dp13
g2
g3
(g7
S'\xd7\x86i\x8e\x8d\xe8w?'
p14
tp15
Rp16
sa(dp17
g2
g3
(g7
S'\x07\xc6P\xf4\xc5\x91A?'
p18
tp19
Rp20
sa(dp21
g2
g3
(g7
S'\xf0Wq\xe2|\xb8E?'
p22
tp23
Rp24
sa(dp25
g2
g3
(g7
S'\xcd]\xf0\x97f\x93c?'
p26
tp27
Rp28
sa(dp29
g2
g3
(g7
S'\x9e\x1e\t\xe2\x91\xe3R?'
p30
tp31
Rp32
sa(dp33
g2
g3
(g7
S'\xe0P\x88\x9aU\xe8d?'
p34
tp35
Rp36
sa(dp37
g2
g3
(g7
S'\x16\xde\xe7)A\xdcD?'
p38
tp39
Rp40
sa(dp41
g2
g3
(g7
S'\xda\x15\xed\x89\x91+Z?'
p42
tp43
Rp44
sa(dp45
g2
g3
(g7
S'\x1f\x91\x13rbCa?'
p46
tp47
Rp48
sa.