(lp0
(dp1
S'loss'
p2
cnumpy.core.multiarray
scalar
p3
(cnumpy
dtype
p4
(S'f8'
p5
I0
I1
tp6
Rp7
(I3
S'<'
p8
NNNI-1
I-1
I0
tp9
bS'0\x86"\x93E{\xb0?'
p10
tp11
Rp12
sa(dp13
g2
g3
(g7
S'fD\x1fP\x15\xa2\xaf?'
p14
tp15
Rp16
sa(dp17
g2
g3
(g7
S'w\xc1_%\x81m\xb0?'
p18
tp19
Rp20
sa(dp21
g2
g3
(g7
S'\xe9J\xe5`\xbb|\xa2?'
p22
tp23
Rp24
sa(dp25
g2
g3
(g7
S'\x1d40f\x8b\x15\xab?'
p26
tp27
Rp28
sa(dp29
g2
g3
(g7
S'\x8a\xcc\x16u\xb2\xb3\xa7?'
p30
tp31
Rp32
sa(dp33
g2
g3
(g7
S'3\xe9J%\x7f\x0e\xa5?'
p34
tp35
Rp36
sa(dp37
g2
g3
(g7
S'z$\x887\x01\x96\xaa?'
p38
tp39
Rp40
sa(dp41
g2
g3
(g7
S'}h\xac\xaf\x1fh\xa8?'
p42
tp43
Rp44
sa(dp45
g2
g3
(g7
S'\xdb\xb6m\x9b\x8cL\xa7?'
p46
tp47
Rp48
sa.