(lp0
(dp1
S'std'
p2
cnumpy.core.multiarray
scalar
p3
(cnumpy
dtype
p4
(S'f4'
p5
I0
I1
tp6
Rp7
(I3
S'<'
p8
NNNI-1
I-1
I0
tp9
bS'HoDC'
p10
tp11
Rp12
sS'loss'
p13
g3
(g4
(S'f8'
p14
I0
I1
tp15
Rp16
(I3
S'<'
p17
NNNI-1
I-1
I0
tp18
bS'\xc7\x97\x9fc\x93\xa3a?'
p19
tp20
Rp21
sS'mean'
p22
g3
(g7
S'\xe6\xcc\x0e\xbf'
p23
tp24
Rp25
sa(dp26
g2
g3
(g7
S'\x88\x17<C'
p27
tp28
Rp29
sg13
g3
(g16
S'NH\xc939\xa0W?'
p30
tp31
Rp32
sg22
g3
(g7
S'\xf4\xd9B\xbe'
p33
tp34
Rp35
sa(dp36
g2
g3
(g7
S'\xac\xa7EC'
p37
tp38
Rp39
sg13
g3
(g16
S'i\xa7G\x02\xd7Q$?'
p40
tp41
Rp42
sg22
g3
(g7
S'3\xe5\xc9='
p43
tp44
Rp45
sa(dp46
g2
g3
(g7
S'\xf2\xd1DC'
p47
tp48
Rp49
sg13
g3
(g16
S'V\x9c\x90\x12\x91U6?'
p50
tp51
Rp52
sg22
g3
(g7
S'\xf2\xa7\x03>'
p53
tp54
Rp55
sa(dp56
g2
g3
(g7
S'>\xc4>C'
p57
tp58
Rp59
sg13
g3
(g16
S'\xaf\x9bI\xd7\xb2\x155?'
p60
tp61
Rp62
sg22
g3
(g7
S'L>\x0c\xbf'
p63
tp64
Rp65
sa(dp66
g2
g3
(g7
S'\xc3\xa4LC'
p67
tp68
Rp69
sg13
g3
(g16
S';\xf6\xd6F\x95-X?'
p70
tp71
Rp72
sg22
g3
(g7
S'6s\xc7>'
p73
tp74
Rp75
sa(dp76
g2
g3
(g7
S'\xf2dJC'
p77
tp78
Rp79
sg13
g3
(g16
S'\xcf2\xa2/!hQ?'
p80
tp81
Rp82
sg22
g3
(g7
S'HK\xb6\xbd'
p83
tp84
Rp85
sa(dp86
g2
g3
(g7
S'\xbe}BC'
p87
tp88
Rp89
sg13
g3
(g16
S'\xab\xf1\xe5\xa7\xf5?O?'
p90
tp91
Rp92
sg22
g3
(g7
S'\xcfV\xea\xbd'
p93
tp94
Rp95
sa(dp96
g2
g3
(g7
S'\x8f;GC'
p97
tp98
Rp99
sg13
g3
(g16
S'\xd1X\x1fz\xe5I\x16?'
p100
tp101
Rp102
sg22
g3
(g7
S'\xe6\x14\xb8<'
p103
tp104
Rp105
sa(dp106
g2
g3
(g7
S'8\xf3NC'
p107
tp108
Rp109
sg13
g3
(g16
S'^N\xc1k+\x84F?'
p110
tp111
Rp112
sg22
g3
(g7
S'\nC\xb5='
p113
tp114
Rp115
sa.