(lp0
(dp1
S'std'
p2
cnumpy.core.multiarray
scalar
p3
(cnumpy
dtype
p4
(S'f4'
p5
I0
I1
tp6
Rp7
(I3
S'<'
p8
NNNI-1
I-1
I0
tp9
bS'\x9e\xd7FC'
p10
tp11
Rp12
sS'loss'
p13
g3
(g4
(S'f8'
p14
I0
I1
tp15
Rp16
(I3
S'<'
p17
NNNI-1
I-1
I0
tp18
bS'+\xb6(\x17\xad\xd6\xae?'
p19
tp20
Rp21
sS'mean'
p22
g3
(g7
S'\x06[Q?'
p23
tp24
Rp25
sa(dp26
g2
g3
(g7
S'l\xd7LC'
p27
tp28
Rp29
sg13
g3
(g16
S'\xaaN\xba\x16\x0b\x94\xb1?'
p30
tp31
Rp32
sg22
g3
(g7
S'\xee!\x15?'
p33
tp34
Rp35
sa(dp36
g2
g3
(g7
S'\x010GC'
p37
tp38
Rp39
sg13
g3
(g16
S'hn \xeb\xaaK\xaa?'
p40
tp41
Rp42
sg22
g3
(g7
S'S\xfbH='
p43
tp44
Rp45
sa(dp46
g2
g3
(g7
S'\x1d\xabFC'
p47
tp48
Rp49
sg13
g3
(g16
S'h\xb3\x14V\xect\xad?'
p50
tp51
Rp52
sg22
g3
(g7
S'\xe8Ws@'
p53
tp54
Rp55
sa(dp56
g2
g3
(g7
S'c)CC'
p57
tp58
Rp59
sg13
g3
(g16
S'\x15[\x94#!\xd4\xa8?'
p60
tp61
Rp62
sg22
g3
(g7
S'\xe8\xdd\xa6>'
p63
tp64
Rp65
sa(dp66
g2
g3
(g7
S'\xc7\xc5>C'
p67
tp68
Rp69
sg13
g3
(g16
S'\x8f\xe1\xc5\x89\xf3\x9c\xa4?'
p70
tp71
Rp72
sg22
g3
(g7
S'\xadH\x85?'
p73
tp74
Rp75
sa(dp76
g2
g3
(g7
S'\x95s/C'
p77
tp78
Rp79
sg13
g3
(g16
S'\xe8\x18^\xbc\x93\xe0\xb1?'
p80
tp81
Rp82
sg22
g3
(g7
S'\x8a\xe7Y?'
p83
tp84
Rp85
sa(dp86
g2
g3
(g7
S'\xe4\xf9=C'
p87
tp88
Rp89
sg13
g3
(g16
S'.WI\x83RV\xb3?'
p90
tp91
Rp92
sg22
g3
(g7
S'5\x90\x1d\xbf'
p93
tp94
Rp95
sa(dp96
g2
g3
(g7
S'\xe2\xc9=C'
p97
tp98
Rp99
sg13
g3
(g16
S'\xb1\x80;\xbd\xc0\xd2\xb0?'
p100
tp101
Rp102
sg22
g3
(g7
S'q\xca\xbb@'
p103
tp104
Rp105
sa(dp106
g2
g3
(g7
S'\xad-HC'
p107
tp108
Rp109
sg13
g3
(g16
S'+iT\xcb\x102\xb2?'
p110
tp111
Rp112
sg22
g3
(g7
S'!\xf7\x8b@'
p113
tp114
Rp115
sa.