(lp0
(dp1
S'std'
p2
cnumpy.core.multiarray
scalar
p3
(cnumpy
dtype
p4
(S'f4'
p5
I0
I1
tp6
Rp7
(I3
S'<'
p8
NNNI-1
I-1
I0
tp9
bS'\xd5\xb0EC'
p10
tp11
Rp12
sS'loss'
p13
g3
(g4
(S'f8'
p14
I0
I1
tp15
Rp16
(I3
S'<'
p17
NNNI-1
I-1
I0
tp18
bS'\x1f!\xf0L\xf0\x04\xac?'
p19
tp20
Rp21
sS'mean'
p22
g3
(g7
S'\x86\x03\x07@'
p23
tp24
Rp25
sa(dp26
g2
g3
(g7
S'\xe9\x06AC'
p27
tp28
Rp29
sg13
g3
(g16
S'\x1e\xdc\xfb\x011\xb2\xa9?'
p30
tp31
Rp32
sg22
g3
(g7
S'\xa2&\xa4?'
p33
tp34
Rp35
sa(dp36
g2
g3
(g7
S'r\xefDC'
p37
tp38
Rp39
sg13
g3
(g16
S'\x8e\x86\x8fp\xc9\xaf\xa9?'
p40
tp41
Rp42
sg22
g3
(g7
S'\x80q\x0f\xc0'
p43
tp44
Rp45
sa(dp46
g2
g3
(g7
S'\xcb\x92@C'
p47
tp48
Rp49
sg13
g3
(g16
S'\xbe\x1ff\x0c\x1d\x00\xa7?'
p50
tp51
Rp52
sg22
g3
(g7
S'\x93\xd0\xfb>'
p53
tp54
Rp55
sa(dp56
g2
g3
(g7
S'R\xe6CC'
p57
tp58
Rp59
sg13
g3
(g16
S'\x12\x02\xcf\xdc\x98Y\xab?'
p60
tp61
Rp62
sg22
g3
(g7
S'\xe3-\x80\xbe'
p63
tp64
Rp65
sa(dp66
g2
g3
(g7
S'\xe8UBC'
p67
tp68
Rp69
sg13
g3
(g16
S'\x1e:\x86W\xc9!\xa5?'
p70
tp71
Rp72
sg22
g3
(g7
S'\xbc\xc9\x11@'
p73
tp74
Rp75
sa(dp76
g2
g3
(g7
S'o{>C'
p77
tp78
Rp79
sg13
g3
(g16
S'\x07S\xe4\xd3\xfbl\xaa?'
p80
tp81
Rp82
sg22
g3
(g7
S'\x95\x10\xc9\xbe'
p83
tp84
Rp85
sa(dp86
g2
g3
(g7
S'^\xc6@C'
p87
tp88
Rp89
sg13
g3
(g16
S'h\xdd`\x8aY\xcc\xad?'
p90
tp91
Rp92
sg22
g3
(g7
S'\xe7;\x04@'
p93
tp94
Rp95
sa(dp96
g2
g3
(g7
S'_uMC'
p97
tp98
Rp99
sg13
g3
(g16
S'\x1d\xc3\x8b3Xj\xa9?'
p100
tp101
Rp102
sg22
g3
(g7
S'\x85\x9a\xab\xbf'
p103
tp104
Rp105
sa(dp106
g2
g3
(g7
S'\x97$CC'
p107
tp108
Rp109
sg13
g3
(g16
S's\x954j!#\xaa?'
p110
tp111
Rp112
sg22
g3
(g7
S'\xb9#\xfc?'
p113
tp114
Rp115
sa.