(lp0
(dp1
S'std'
p2
cnumpy.core.multiarray
scalar
p3
(cnumpy
dtype
p4
(S'f4'
p5
I0
I1
tp6
Rp7
(I3
S'<'
p8
NNNI-1
I-1
I0
tp9
bS'\x89HBC'
p10
tp11
Rp12
sS'loss'
p13
g3
(g4
(S'f8'
p14
I0
I1
tp15
Rp16
(I3
S'<'
p17
NNNI-1
I-1
I0
tp18
bS'\xd4j|\xf94P\xa8?'
p19
tp20
Rp21
sS'mean'
p22
g3
(g7
S'\x10\x0e\xa4?'
p23
tp24
Rp25
sa(dp26
g2
g3
(g7
S'\x8cFLC'
p27
tp28
Rp29
sg13
g3
(g16
S'\xb5\x1a_\xbe\xea\x8f\xa3?'
p30
tp31
Rp32
sg22
g3
(g7
S'9\xe6R\xc0'
p33
tp34
Rp35
sa(dp36
g2
g3
(g7
S'\xad\xf6>C'
p37
tp38
Rp39
sg13
g3
(g16
S'40\x86\xa2\xb26\xb4?'
p40
tp41
Rp42
sg22
g3
(g7
S'\x12UT@'
p43
tp44
Rp45
sa(dp46
g2
g3
(g7
S'\xa7\xdc>C'
p47
tp48
Rp49
sg13
g3
(g16
S"\x10\xa8\x8e\xed\x12'\xa7?"
p50
tp51
Rp52
sg22
g3
(g7
S'\xff\xa7\x0e@'
p53
tp54
Rp55
sa(dp56
g2
g3
(g7
S'!.HC'
p57
tp58
Rp59
sg13
g3
(g16
S'\xd0\xc0\x18\n\x04[\xa4?'
p60
tp61
Rp62
sg22
g3
(g7
S'\xdc\xaa\x12@'
p63
tp64
Rp65
sa(dp66
g2
g3
(g7
S'\xbf\x95BC'
p67
tp68
Rp69
sg13
g3
(g16
S'\xbe\xfc\x9cW\xe2\x83\xa5?'
p70
tp71
Rp72
sg22
g3
(g7
S'XP\x8c?'
p73
tp74
Rp75
sa(dp76
g2
g3
(g7
S'K\x04@C'
p77
tp78
Rp79
sg13
g3
(g16
S'\x8d\xe8\x03*\x8e\x9f\xb1?'
p80
tp81
Rp82
sg22
g3
(g7
S'\xa8\xec1\xbf'
p83
tp84
Rp85
sa(dp86
g2
g3
(g7
S'G\x13EC'
p87
tp88
Rp89
sg13
g3
(g16
S'\x10\xa8\x8e\xcdF\\\xa7?'
p90
tp91
Rp92
sg22
g3
(g7
S'\xca\xab5@'
p93
tp94
Rp95
sa(dp96
g2
g3
(g7
S'(:GC'
p97
tp98
Rp99
sg13
g3
(g16
S'\xf0r\n\xdeI\xc1\xa8?'
p100
tp101
Rp102
sg22
g3
(g7
S'I7h@'
p103
tp104
Rp105
sa(dp106
g2
g3
(g7
S'\xc4\x0bBC'
p107
tp108
Rp109
sg13
g3
(g16
S'\xc1\xcb)\x88\x1a\x80\xa6?'
p110
tp111
Rp112
sg22
g3
(g7
S'\xe7\xcb\xbc\xbf'
p113
tp114
Rp115
sa.