(lp0
(dp1
S'std'
p2
cnumpy.core.multiarray
scalar
p3
(cnumpy
dtype
p4
(S'f4'
p5
I0
I1
tp6
Rp7
(I3
S'<'
p8
NNNI-1
I-1
I0
tp9
bS'2\x01\xfcA'
p10
tp11
Rp12
sS'loss'
p13
g3
(g4
(S'f8'
p14
I0
I1
tp15
Rp16
(I3
S'<'
p17
NNNI-1
I-1
I0
tp18
bS'\xab\xf1\xe5\xe7k\n\xaf?'
p19
tp20
Rp21
sS'mean'
p22
g3
(g7
S'\x0f\xa7e@'
p23
tp24
Rp25
sa(dp26
g2
g3
(g7
S'\xd9\xa4\xceA'
p27
tp28
Rp29
sg13
g3
(g16
S'wz$\x08\xf3\xee\xab?'
p30
tp31
Rp32
sg22
g3
(g7
S'\x91\x1eP@'
p33
tp34
Rp35
sa(dp36
g2
g3
(g7
S'\xcd\x9c\xdcA'
p37
tp38
Rp39
sg13
g3
(g16
S'\xbdn&\xbd\x82z\xad?'
p40
tp41
Rp42
sg22
g3
(g7
S'\xd2&\x0e>'
p43
tp44
Rp45
sa(dp46
g2
g3
(g7
S'\x86\xb5\xcfA'
p47
tp48
Rp49
sg13
g3
(g16
S'\x96\x11}\xe0@\x04\xb1?'
p50
tp51
Rp52
sg22
g3
(g7
S'\x8e\xea\xb8@'
p53
tp54
Rp55
sa(dp56
g2
g3
(g7
S'\xf0\xb0\xd9A'
p57
tp58
Rp59
sg13
g3
(g16
S'\xa5+\x95\x83\x8dd\xab?'
p60
tp61
Rp62
sg22
g3
(g7
S'd\xd6\xdb>'
p63
tp64
Rp65
sa(dp66
g2
g3
(g7
S'\xfbm\xe0A'
p67
tp68
Rp69
sg13
g3
(g16
S'40\x86Bv\x94\xaa?'
p70
tp71
Rp72
sg22
g3
(g7
S'\xe9\xdb*@'
p73
tp74
Rp75
sa(dp76
g2
g3
(g7
S'qv\xdfA'
p77
tp78
Rp79
sg13
g3
(g16
S'\xd1\x07T\x07\xdc\\\xad?'
p80
tp81
Rp82
sg22
g3
(g7
S'$f\xa1@'
p83
tp84
Rp85
sa(dp86
g2
g3
(g7
S'\xd5\xfb\xedA'
p87
tp88
Rp89
sg13
g3
(g16
S'\x94\xf5\x8f\x0b\xfb:\xb1?'
p90
tp91
Rp92
sg22
g3
(g7
S'~\xa4\n@'
p93
tp94
Rp95
sa(dp96
g2
g3
(g7
S'\x85\x9c\xddA'
p97
tp98
Rp99
sg13
g3
(g16
S'\x1a\xebC\x13\x02a\xaa?'
p100
tp101
Rp102
sg22
g3
(g7
S'&\xff\xf5?'
p103
tp104
Rp105
sa(dp106
g2
g3
(g7
S'\xe7\xa0\xc1A'
p107
tp108
Rp109
sg13
g3
(g16
S'\x98S\xf0\xb2\xbcl\xaa?'
p110
tp111
Rp112
sg22
g3
(g7
S'\x85K\xa7?'
p113
tp114
Rp115
sa.