(lp0
(dp1
S'loss'
p2
cnumpy.core.multiarray
scalar
p3
(cnumpy
dtype
p4
(S'f8'
p5
I0
I1
tp6
Rp7
(I3
S'<'
p8
NNNI-1
I-1
I0
tp9
bS'hD\xb2,\x1f\xc7\xbb?'
p10
tp11
Rp12
sa(dp13
g2
g3
(g7
S'\xe55\x94g\x85\x88\xb4?'
p14
tp15
Rp16
sa(dp17
g2
g3
(g7
S'{\x7fc\xc0\xa6\xda\xb2?'
p18
tp19
Rp20
sa(dp21
g2
g3
(g7
S'n\xadB\x13\xd9)\xb6?'
p22
tp23
Rp24
sa(dp25
g2
g3
(g7
S'\xbd\x86\xf2b\x95B\xb8?'
p26
tp27
Rp28
sa.