(lp0
(dp1
S'loss'
p2
cnumpy.core.multiarray
scalar
p3
(cnumpy
dtype
p4
(S'f8'
p5
I0
I1
tp6
Rp7
(I3
S'<'
p8
NNNI-1
I-1
I0
tp9
bS'LT\x1cv\r\xe3\xa6?'
p10
tp11
Rp12
sa(dp13
g2
g3
(g7
S'E\xd8v\xc8\x89\xc4\xa9?'
p14
tp15
Rp16
sa(dp17
g2
g3
(g7
S'\x83!3\x84\x12!\xa2?'
p18
tp19
Rp20
sa(dp21
g2
g3
(g7
S'_|\xb8B\xd9\xa5\xa5?'
p22
tp23
Rp24
sa(dp25
g2
g3
(g7
S'\xa4T/\xcb\x87+\xad?'
p26
tp27
Rp28
sa.