(lp0
(dp1
S'std'
p2
cnumpy.core.multiarray
scalar
p3
(cnumpy
dtype
p4
(S'f4'
p5
I0
I1
tp6
Rp7
(I3
S'<'
p8
NNNI-1
I-1
I0
tp9
bS'\xd1\xe9!B'
p10
tp11
Rp12
sS'loss'
p13
g3
(g4
(S'f8'
p14
I0
I1
tp15
Rp16
(I3
S'<'
p17
NNNI-1
I-1
I0
tp18
bS'f\x8bZm\xacI\xb3?'
p19
tp20
Rp21
sS'mean'
p22
g3
(g7
S'\xe9\xc9\x0c?'
p23
tp24
Rp25
sa(dp26
g2
g3
(g7
S'o}*B'
p27
tp28
Rp29
sg13
g3
(g16
S'\x97X\xb8\xfd\xc0\xf4\xb6?'
p30
tp31
Rp32
sg22
g3
(g7
S'\x11\xe7\xa2?'
p33
tp34
Rp35
sa(dp36
g2
g3
(g7
S'\xf6\xd1\rB'
p37
tp38
Rp39
sg13
g3
(g16
S'\xba\x0b\xfe\x1a>\xfe\xb3?'
p40
tp41
Rp42
sg22
g3
(g7
S'HQ\xe5@'
p43
tp44
Rp45
sa(dp46
g2
g3
(g7
S'&l%B'
p47
tp48
Rp49
sg13
g3
(g16
S'D\x1fP\xfd\xb8\x17\xbb?'
p50
tp51
Rp52
sg22
g3
(g7
S'\x93\x86\x9d>'
p53
tp54
Rp55
sa(dp56
g2
g3
(g7
S'\xa9s(B'
p57
tp58
Rp59
sg13
g3
(g16
S'=\xcb\x88>\xd1\xd3\xb5?'
p60
tp61
Rp62
sg22
g3
(g7
S'\xcdS\xb4?'
p63
tp64
Rp65
sa(dp66
g2
g3
(g7
S'\x83\xbe\x1fB'
p67
tp68
Rp69
sg13
g3
(g16
S'\xa7\x00G\xbb\xb2\x92\xb7?'
p70
tp71
Rp72
sg22
g3
(g7
S';\xb5\xb5?'
p73
tp74
Rp75
sa(dp76
g2
g3
(g7
S'3\xd67B'
p77
tp78
Rp79
sg13
g3
(g16
S'\xc0\xd1N\x7f\x7f\x8a\xb4?'
p80
tp81
Rp82
sg22
g3
(g7
S'\n\x98:?'
p83
tp84
Rp85
sa(dp86
g2
g3
(g7
S':o2B'
p87
tp88
Rp89
sg13
g3
(g16
S'\x16n\xdf!\xd5\xc8\xb6?'
p90
tp91
Rp92
sg22
g3
(g7
S'\x07V)@'
p93
tp94
Rp95
sa(dp96
g2
g3
(g7
S"l\xf5'B"
p97
tp98
Rp99
sg13
g3
(g16
S'h\xac\x0f\r\xd5_\xb6?'
p100
tp101
Rp102
sg22
g3
(g7
S',\xd3\xae?'
p103
tp104
Rp105
sa(dp106
g2
g3
(g7
S"\xfd\xd9'B"
p107
tp108
Rp109
sg13
g3
(g16
S'\xa2\xb1>T\x81\xbf\xb5?'
p110
tp111
Rp112
sg22
g3
(g7
S'\xeb\x9a\xe1?'
p113
tp114
Rp115
sa.