(lp0
(dp1
S'std'
p2
cnumpy.core.multiarray
scalar
p3
(cnumpy
dtype
p4
(S'f4'
p5
I0
I1
tp6
Rp7
(I3
S'<'
p8
NNNI-1
I-1
I0
tp9
bS'r\xed0B'
p10
tp11
Rp12
sS'loss'
p13
g3
(g4
(S'f8'
p14
I0
I1
tp15
Rp16
(I3
S'<'
p17
NNNI-1
I-1
I0
tp18
bS'\xc6Pd6\xd2\xc9\xb9?'
p19
tp20
Rp21
sS'mean'
p22
g3
(g7
S'\x86\xcf=?'
p23
tp24
Rp25
sa(dp26
g2
g3
(g7
S'\xc4\x80(B'
p27
tp28
Rp29
sg13
g3
(g16
S'\x16n\xdf\x91f\xf6\xb7?'
p30
tp31
Rp32
sg22
g3
(g7
S'fH\x02@'
p33
tp34
Rp35
sa(dp36
g2
g3
(g7
S'\xd7\xa25B'
p37
tp38
Rp39
sg13
g3
(g16
S'#\xb3E-\x1cG\xbb?'
p40
tp41
Rp42
sg22
g3
(g7
S'\xc3\xfc\xda@'
p43
tp44
Rp45
sa(dp46
g2
g3
(g7
S'?\xd6`B'
p47
tp48
Rp49
sg13
g3
(g16
S'W*\x07M\xf9\x85\xbf?'
p50
tp51
Rp52
sg22
g3
(g7
S'\x1dMV@'
p53
tp54
Rp55
sa(dp56
g2
g3
(g7
S'\x8c\xa5;B'
p57
tp58
Rp59
sg13
g3
(g16
S'\xeb\x1f\x97\xd8\xb3|\xc0?'
p60
tp61
Rp62
sg22
g3
(g7
S'\x17-\x18A'
p63
tp64
Rp65
sa(dp66
g2
g3
(g7
S'8\xdb9B'
p67
tp68
Rp69
sg13
g3
(g16
S'\x08T\xc7^\xf7\x8f\xba?'
p70
tp71
Rp72
sg22
g3
(g7
S'\xb4\xefh@'
p73
tp74
Rp75
sa(dp76
g2
g3
(g7
S'y\xab1B'
p77
tp78
Rp79
sg13
g3
(g16
S'\xec\xad\r\xd3G%\xc0?'
p80
tp81
Rp82
sg22
g3
(g7
S'`g\x0eA'
p83
tp84
Rp85
sa(dp86
g2
g3
(g7
S'9nMB'
p87
tp88
Rp89
sg13
g3
(g16
S'\xe1\xf6\x1dBA\x9a\xbf?'
p90
tp91
Rp92
sg22
g3
(g7
S"\x8d\xed'@"
p93
tp94
Rp95
sa(dp96
g2
g3
(g7
S'\xff\xbc6B'
p97
tp98
Rp99
sg13
g3
(g16
S'\xb7m\xdb\x06\xf9\xef\xbc?'
p100
tp101
Rp102
sg22
g3
(g7
S'=\xba\x1d@'
p103
tp104
Rp105
sa(dp106
g2
g3
(g7
S'9\x1d.B'
p107
tp108
Rp109
sg13
g3
(g16
S'/\xa7\xe0\x05K(\xbb?'
p110
tp111
Rp112
sg22
g3
(g7
S'\x00\x84\xbd@'
p113
tp114
Rp115
sa.