ccopy_reg
_reconstructor
p0
(csklearn.pipeline
Pipeline
p1
c__builtin__
object
p2
Ntp3
Rp4
(dp5
S'_sklearn_version'
p6
S'0.18'
p7
sS'steps'
p8
(lp9
(S'normOut'
p10
g0
(csklearn.preprocessing.data
StandardScaler
p11
g2
Ntp12
Rp13
(dp14
S'mean_'
p15
cnumpy.core.multiarray
_reconstruct
p16
(cnumpy
ndarray
p17
(I0
tp18
S'b'
p19
tp20
Rp21
(I1
(I3
tp22
cnumpy
dtype
p23
(S'f4'
p24
I0
I1
tp25
Rp26
(I3
S'<'
p27
NNNI-1
I-1
I0
tp28
bI00
S'\xd3\x86\x0f\xbf9\xcd\xa7<b\xc1$?'
p29
tp30
bsS'with_mean'
p31
I01
sS'var_'
p32
g16
(g17
(I0
tp33
g19
tp34
Rp35
(I1
(I3
tp36
g26
I00
S'\xc8\x94\xe2E\x83\t\xe3Ek\xed\xdeF'
p37
tp38
bsS'scale_'
p39
g16
(g17
(I0
tp40
g19
tp41
Rp42
(I1
(I3
tp43
g26
I00
S'\x07M\xaaB\xdfx\xaaB\x15\xec(C'
p44
tp45
bsS'with_std'
p46
I01
sS'n_samples_seen_'
p47
I49124
sg6
g7
sS'copy'
p48
I01
sbtp49
asb.