ccopy_reg
_reconstructor
p0
(csklearn.pipeline
Pipeline
p1
c__builtin__
object
p2
Ntp3
Rp4
(dp5
S'_sklearn_version'
p6
S'0.18'
p7
sS'steps'
p8
(lp9
(S'normOut'
p10
g0
(csklearn.preprocessing.data
StandardScaler
p11
g2
Ntp12
Rp13
(dp14
S'mean_'
p15
cnumpy.core.multiarray
_reconstruct
p16
(cnumpy
ndarray
p17
(I0
tp18
S'b'
p19
tp20
Rp21
(I1
(I3
tp22
cnumpy
dtype
p23
(S'f8'
p24
I0
I1
tp25
Rp26
(I3
S'<'
p27
NNNI-1
I-1
I0
tp28
bI00
S'q\xc0p\x97Wn\xd7\xbf}\xeb\x97\xc8\xf1m\xd1\xbfc7W\xe8\xa6\xad\xf1?'
p29
tp30
bsS'with_mean'
p31
I01
sS'var_'
p32
g16
(g17
(I0
tp33
g19
tp34
Rp35
(I1
(I3
tp36
g26
I00
S'\x00\x00\x00`\x99\x98\xc0@\x00\x00\x00\x80*\xb8\xc0@\x00\x00\x00\x00\xad1\xe1@'
p37
tp38
bsS'scale_'
p39
g16
(g17
(I0
tp40
g19
tp41
Rp42
(I1
(I3
tp43
g26
I00
S'\xde\x1d\xa81\x89\x0bW@\xa6\x85lxi!W@lG\x1b\x17\xe0tg@'
p44
tp45
bsS'with_std'
p46
I01
sS'n_samples_seen_'
p47
I98248
sg6
g7
sS'copy'
p48
I01
sbtp49
asb.